target datalayout = "e-m:e-p270:32:32-p271:32:32-p272:64:64-i64:64-i128:128-f80:128-n8:16:32:64-S128"
target triple = "x86_64-pc-linux-gnu"

@_ZL9StatArray = internal global ptr null, align 8
@_ZL14alloc_granules = internal global i64 0, align 8
@_ZL12granule_size = internal global i64 0, align 8
@.str.24 = private unnamed_addr constant [66 x i8] c"Statistics could not be collected for %s, probably out of memory.\00", align 1
@.str.25 = private unnamed_addr constant [61 x i8] c"Current granularity is %lu bytes. Try a coarser granularity.\00", align 1

; Function Attrs: mustprogress nounwind uwtable
define hidden void @_ZN13CodeHeapState17prepare_StatArrayEP12outputStreammmPKc(ptr noundef %0, i64 noundef %1, i64 noundef %2, ptr noundef %3) #1 align 2 {
  %5 = alloca i64, align 8
  %6 = alloca i8, align 1
  %7 = alloca i64, align 8
  %8 = alloca ptr, align 8
  %9 = alloca i64, align 8
  %10 = alloca i64, align 8
  %11 = alloca ptr, align 8
  store ptr %0, ptr %8, align 8
  store i64 %1, ptr %9, align 8
  store i64 %2, ptr %10, align 8
  store ptr %3, ptr %11, align 8
  %12 = load ptr, ptr @_ZL9StatArray, align 8
  %13 = icmp eq ptr %12, null
  br i1 %13, label %14, label %26

14:                                               ; preds = %4
  %15 = load i64, ptr %9, align 8
  %16 = call { i64, i1 } @llvm.umul.with.overflow.i64(i64 %15, i64 40)
  %17 = extractvalue { i64, i1 } %16, 1
  %18 = extractvalue { i64, i1 } %16, 0
  %19 = select i1 %17, i64 -1, i64 %18
  store i64 %19, ptr %7, align 8
  %20 = load i64, ptr %7, align 8
  store i64 %20, ptr %5, align 8
  store i8 4, ptr %6, align 1
  %21 = load i64, ptr %5, align 8
  %22 = load i8, ptr %6, align 1
  %23 = call noundef ptr @_Z12AllocateHeapm8MEMFLAGSN17AllocFailStrategy13AllocFailEnumE(i64 noundef %21, i8 noundef zeroext %22, i32 noundef 0) #9
  store ptr %23, ptr @_ZL9StatArray, align 8
  %24 = load i64, ptr %9, align 8
  store i64 %24, ptr @_ZL14alloc_granules, align 8
  %25 = load i64, ptr %10, align 8
  store i64 %25, ptr @_ZL12granule_size, align 8
  br label %26

26:                                               ; preds = %14, %4
  %27 = load ptr, ptr @_ZL9StatArray, align 8
  %28 = icmp eq ptr %27, null
  br i1 %28, label %29, label %34

29:                                               ; preds = %26
  %30 = load ptr, ptr %8, align 8
  %31 = load ptr, ptr %11, align 8
  call void (ptr, ptr, ...) @_ZN12outputStream8print_crEPKcz(ptr noundef nonnull align 8 dereferenceable(56) %30, ptr noundef @.str.24, ptr noundef %31)
  %32 = load ptr, ptr %8, align 8
  %33 = load i64, ptr %10, align 8
  call void (ptr, ptr, ...) @_ZN12outputStream8print_crEPKcz(ptr noundef nonnull align 8 dereferenceable(56) %32, ptr noundef @.str.25, i64 noundef %33)
  store i64 0, ptr @_ZL14alloc_granules, align 8
  store i64 0, ptr @_ZL12granule_size, align 8
  br label %38

34:                                               ; preds = %26
  %35 = load ptr, ptr @_ZL9StatArray, align 8
  %36 = load i64, ptr %9, align 8
  %37 = mul i64 %36, 40
  call void @llvm.memset.p0.i64(ptr align 1 %35, i8 0, i64 %37, i1 false)
  br label %38

38:                                               ; preds = %34, %29
  ret void
}