; Function Attrs: mustprogress nounwind uwtable
define hidden void @_ZN13CodeHeapState17prepare_StatArrayEP12outputStreammmPKc(ptr noundef %0, i64 noundef %1, i64 noundef %2, ptr noundef %3) local_unnamed_addr #1 align 2 {
  %5 = load ptr, ptr @_ZL9StatArray, align 8
  %6 = icmp eq ptr %5, null
  br i1 %6, label %7, label %..thread_crit_edge

..thread_crit_edge:                               ; preds = %4
  %.pre = mul i64 %1, 40
  br label %.thread

7:                                                ; preds = %4
  %8 = tail call { i64, i1 } @llvm.umul.with.overflow.i64(i64 %1, i64 40)
  %9 = extractvalue { i64, i1 } %8, 1
  %10 = extractvalue { i64, i1 } %8, 0
  %11 = select i1 %9, i64 -1, i64 %10
  %12 = tail call noundef ptr @_Z12AllocateHeapm8MEMFLAGSN17AllocFailStrategy13AllocFailEnumE(i64 noundef %11, i8 noundef zeroext 4, i32 noundef 0) #12
  store ptr %12, ptr @_ZL9StatArray, align 8
  store i64 %1, ptr @_ZL14alloc_granules, align 8
  store i64 %2, ptr @_ZL12granule_size, align 8
  %13 = icmp eq ptr %12, null
  br i1 %13, label %14, label %.thread

14:                                               ; preds = %7
  tail call void (ptr, ptr, ...) @_ZN12outputStream8print_crEPKcz(ptr noundef nonnull align 8 dereferenceable(56) %0, ptr noundef nonnull @.str.24, ptr noundef %3) #12
  tail call void (ptr, ptr, ...) @_ZN12outputStream8print_crEPKcz(ptr noundef nonnull align 8 dereferenceable(56) %0, ptr noundef nonnull @.str.25, i64 noundef %2) #12
  store i64 0, ptr @_ZL14alloc_granules, align 8
  store i64 0, ptr @_ZL12granule_size, align 8
  br label %16

.thread:                                          ; preds = %..thread_crit_edge, %7
  %.pre-phi = phi i64 [ %.pre, %..thread_crit_edge ], [ %10, %7 ]
  %15 = phi ptr [ %5, %..thread_crit_edge ], [ %12, %7 ]
  tail call void @llvm.memset.p0.i64(ptr nonnull align 1 %15, i8 0, i64 %.pre-phi, i1 false)
  br label %16

16:                                               ; preds = %.thread, %14
  ret void
}